; Function Attrs: nounwind sspstrong uwtable
define internal i64 @path_sub_ext(i64 noundef %0, i64 noundef %1) #0 {
  %3 = alloca i64, align 8
  %4 = alloca i64, align 8
  %5 = alloca i64, align 8
  store i64 %1, ptr %3, align 8, !tbaa !6
  %6 = load i64, ptr @id_at_path, align 8, !tbaa !6
  %7 = tail call i64 @rb_ivar_get(i64 noundef %0, i64 noundef %6) #7
  %8 = icmp eq i64 %7, 0
  %9 = and i64 %7, 7
  %10 = icmp ne i64 %9, 0
  %11 = or i1 %8, %10
  br i1 %11, label %rbimpl_RB_TYPE_P_fastpath.exit.thread.i, label %rbimpl_RB_TYPE_P_fastpath.exit.i

rbimpl_RB_TYPE_P_fastpath.exit.i:                 ; preds = %2
  %12 = inttoptr i64 %7 to ptr
  %13 = load i64, ptr %12, align 8, !tbaa !10
  %14 = and i64 %13, 31
  %15 = icmp eq i64 %14, 5
  br i1 %15, label %get_strpath.exit, label %rbimpl_RB_TYPE_P_fastpath.exit.thread.i

rbimpl_RB_TYPE_P_fastpath.exit.thread.i:          ; preds = %rbimpl_RB_TYPE_P_fastpath.exit.i, %2
  %16 = load i64, ptr @rb_eTypeError, align 8, !tbaa !6
  tail call void (i64, ptr, ...) @rb_raise(i64 noundef %16, ptr noundef nonnull @.str.91) #9
  unreachable

get_strpath.exit:                                 ; preds = %rbimpl_RB_TYPE_P_fastpath.exit.i
  call void @llvm.lifetime.start.p0(i64 8, ptr nonnull %4) #7
  call void @llvm.lifetime.start.p0(i64 8, ptr nonnull %5) #7
  %17 = call i64 @rb_string_value(ptr noundef nonnull %3) #7
  %18 = load i64, ptr %12, align 8, !tbaa !10, !noalias !23
  %19 = and i64 %18, 8192
  %.not.i.i = icmp eq i64 %19, 0
  %20 = getelementptr inbounds nuw i8, ptr %12, i64 24
  br i1 %.not.i.i, label %RSTRING_PTR.exit, label %21

21:                                               ; preds = %get_strpath.exit
  %.sroa.2.0.copyload.i = load ptr, ptr %20, align 8
  br label %RSTRING_PTR.exit

RSTRING_PTR.exit:                                 ; preds = %get_strpath.exit, %21
  %.sroa.2.0.i = phi ptr [ %.sroa.2.0.copyload.i, %21 ], [ %20, %get_strpath.exit ]
  %22 = getelementptr inbounds nuw i8, ptr %12, i64 16
  %23 = load i64, ptr %22, align 8, !tbaa !15
  store i64 %23, ptr %5, align 8, !tbaa !6
  %24 = call ptr @rb_enc_get(i64 noundef %7) #7
  %25 = call ptr @ruby_enc_find_extname(ptr noundef %.sroa.2.0.i, ptr noundef nonnull %5, ptr noundef %24) #7
  %26 = icmp eq ptr %25, null
  br i1 %26, label %27, label %30

27:                                               ; preds = %RSTRING_PTR.exit
  %28 = load i64, ptr %22, align 8, !tbaa !15
  %29 = getelementptr inbounds i8, ptr %.sroa.2.0.i, i64 %28
  br label %33

30:                                               ; preds = %RSTRING_PTR.exit
  %31 = load i64, ptr %5, align 8, !tbaa !6
  %32 = icmp slt i64 %31, 2
  %spec.select.idx = select i1 %32, i64 %31, i64 0
  %spec.select = getelementptr inbounds i8, ptr %25, i64 %spec.select.idx
  br label %33

33:                                               ; preds = %30, %27
  %.0 = phi ptr [ %29, %27 ], [ %spec.select, %30 ]
  %34 = ptrtoint ptr %.0 to i64
  %35 = ptrtoint ptr %.sroa.2.0.i to i64
  %36 = sub i64 %34, %35
  %37 = call i64 @rb_str_subseq(i64 noundef %7, i64 noundef 0, i64 noundef %36) #7
  store i64 %37, ptr %4, align 8, !tbaa !6
  %38 = load i64, ptr %3, align 8, !tbaa !6
  %39 = call i64 @rb_str_append(i64 noundef %37, i64 noundef %38) #7
  %40 = call i64 @rb_obj_class(i64 noundef %0) #7
  %41 = call i64 @rb_class_new_instance(i32 noundef 1, ptr noundef nonnull %4, i64 noundef %40) #7
  call void @llvm.lifetime.end.p0(i64 8, ptr nonnull %5) #7
  call void @llvm.lifetime.end.p0(i64 8, ptr nonnull %4) #7
  ret i64 %41
}